target datalayout = "e-m:e-p270:32:32-p271:32:32-p272:64:64-i64:64-i128:128-f80:128-n8:16:32:64-S128"
target triple = "x86_64-pc-linux-gnu"

; Function Attrs: mustprogress nounwind uwtable
define void @proj_string_list_destroy(ptr noundef %0) #0 {
  %2 = alloca ptr, align 8
  %3 = alloca i64, align 8
  store ptr %0, ptr %2, align 8
  %4 = load ptr, ptr %2, align 8
  %5 = icmp ne ptr %4, null
  br i1 %5, label %6, label %29

6:                                                ; preds = %1
  store i64 0, ptr %3, align 8
  br label %7

7:                                                ; preds = %21, %6
  %8 = load ptr, ptr %2, align 8
  %9 = load i64, ptr %3, align 8
  %10 = getelementptr inbounds ptr, ptr %8, i64 %9
  %11 = load ptr, ptr %10, align 8
  %12 = icmp ne ptr %11, null
  br i1 %12, label %13, label %24

13:                                               ; preds = %7
  %14 = load ptr, ptr %2, align 8
  %15 = load i64, ptr %3, align 8
  %16 = getelementptr inbounds ptr, ptr %14, i64 %15
  %17 = load ptr, ptr %16, align 8
  %18 = icmp eq ptr %17, null
  br i1 %18, label %20, label %19

19:                                               ; preds = %13
  call void @_ZdaPv(ptr noundef %17) #20
  br label %20

20:                                               ; preds = %19, %13
  br label %21

21:                                               ; preds = %20
  %22 = load i64, ptr %3, align 8
  %23 = add i64 %22, 1
  store i64 %23, ptr %3, align 8
  br label %7, !llvm.loop !17

24:                                               ; preds = %7
  %25 = load ptr, ptr %2, align 8
  %26 = icmp eq ptr %25, null
  br i1 %26, label %28, label %27

27:                                               ; preds = %24
  call void @_ZdaPv(ptr noundef %25) #20
  br label %28

28:                                               ; preds = %27, %24
  br label %29

29:                                               ; preds = %28, %1
  ret void
}