; Function Attrs: mustprogress nounwind uwtable
define void @proj_string_list_destroy(ptr noundef %0) local_unnamed_addr #0 {
  %.not = icmp eq ptr %0, null
  br i1 %.not, label %7, label %.preheader

.preheader:                                       ; preds = %1
  %2 = load ptr, ptr %0, align 8
  %.not89 = icmp eq ptr %2, null
  br i1 %.not89, label %._crit_edge, label %.lr.ph

.lr.ph:                                           ; preds = %.preheader, %.lr.ph
  %3 = phi ptr [ %6, %.lr.ph ], [ %2, %.preheader ]
  %.010 = phi i64 [ %4, %.lr.ph ], [ 0, %.preheader ]
  tail call void @_ZdaPv(ptr noundef nonnull %3) #28
  %4 = add i64 %.010, 1
  %5 = getelementptr inbounds ptr, ptr %0, i64 %4
  %6 = load ptr, ptr %5, align 8
  %.not8 = icmp eq ptr %6, null
  br i1 %.not8, label %._crit_edge, label %.lr.ph, !llvm.loop !52

._crit_edge:                                      ; preds = %.lr.ph, %.preheader
  tail call void @_ZdaPv(ptr noundef nonnull %0) #28
  br label %7

7:                                                ; preds = %._crit_edge, %1
  ret void
}